; Function Attrs: nounwind uwtable
define i32 @idaLsPSetup(ptr noundef %0) #0 {
  %2 = icmp eq ptr %0, null
  br i1 %2, label %3, label %4

3:                                                ; preds = %1
  tail call void (ptr, i32, i32, ptr, ptr, ptr, ...) @IDAProcessError(ptr noundef null, i32 noundef -1, i32 noundef 1766, ptr noundef nonnull @__func__.idaLsPSetup, ptr noundef nonnull @.str, ptr noundef nonnull @.str.1) #13
  br label %idaLs_AccessLMem.exit.thread

4:                                                ; preds = %1
  %5 = getelementptr inbounds nuw i8, ptr %0, i64 1048
  %6 = load ptr, ptr %5, align 8, !tbaa !65
  %7 = icmp eq ptr %6, null
  br i1 %7, label %8, label %idaLs_AccessLMem.exit

8:                                                ; preds = %4
  tail call void (ptr, i32, i32, ptr, ptr, ptr, ...) @IDAProcessError(ptr noundef nonnull %0, i32 noundef -2, i32 noundef 1773, ptr noundef nonnull @__func__.idaLsPSetup, ptr noundef nonnull @.str, ptr noundef nonnull @.str.30) #13
  br label %idaLs_AccessLMem.exit.thread

idaLs_AccessLMem.exit:                            ; preds = %4
  %9 = getelementptr inbounds nuw i8, ptr %6, i64 256
  %10 = load ptr, ptr %9, align 8, !tbaa !71
  %11 = getelementptr inbounds nuw i8, ptr %0, i64 680
  %12 = load double, ptr %11, align 8, !tbaa !77
  %13 = getelementptr inbounds nuw i8, ptr %6, i64 72
  %14 = load ptr, ptr %13, align 8, !tbaa !72
  %15 = getelementptr inbounds nuw i8, ptr %6, i64 80
  %16 = load ptr, ptr %15, align 8, !tbaa !73
  %17 = getelementptr inbounds nuw i8, ptr %6, i64 88
  %18 = load ptr, ptr %17, align 8, !tbaa !74
  %19 = getelementptr inbounds nuw i8, ptr %0, i64 696
  %20 = load double, ptr %19, align 8, !tbaa !80
  %21 = getelementptr inbounds nuw i8, ptr %6, i64 280
  %22 = load ptr, ptr %21, align 8, !tbaa !54
  %23 = tail call i32 %10(double noundef %12, ptr noundef %14, ptr noundef %16, ptr noundef %18, double noundef %20, ptr noundef %22) #13
  %24 = getelementptr inbounds nuw i8, ptr %6, i64 136
  %25 = load i64, ptr %24, align 8, !tbaa !109
  %26 = add nsw i64 %25, 1
  store i64 %26, ptr %24, align 8, !tbaa !109
  br label %idaLs_AccessLMem.exit.thread

idaLs_AccessLMem.exit.thread:                     ; preds = %8, %3, %idaLs_AccessLMem.exit
  %.0 = phi i32 [ %23, %idaLs_AccessLMem.exit ], [ -2, %8 ], [ -1, %3 ]
  ret i32 %.0
}